Archive member included to satisfy reference by file (symbol)

c:/program files (x86)/embitz/2.62/share/armgcc/bin/../lib/gcc/arm-none-eabi/9.3.1/thumb/v6-m/nofp\libgcc.a(_udivsi3.o)
                              obj\release\src\system_stm32f0xx.o (__aeabi_uidiv)
c:/program files (x86)/embitz/2.62/share/armgcc/bin/../lib/gcc/arm-none-eabi/9.3.1/thumb/v6-m/nofp\libgcc.a(_divsi3.o)
                              obj\release\src\calibration.o (__aeabi_idiv)
c:/program files (x86)/embitz/2.62/share/armgcc/bin/../lib/gcc/arm-none-eabi/9.3.1/thumb/v6-m/nofp\libgcc.a(_dvmd_tls.o)
                              c:/program files (x86)/embitz/2.62/share/armgcc/bin/../lib/gcc/arm-none-eabi/9.3.1/thumb/v6-m/nofp\libgcc.a(_udivsi3.o) (__aeabi_idiv0)
c:/program files (x86)/embitz/2.62/share/armgcc/bin/../lib/gcc/arm-none-eabi/9.3.1/thumb/v6-m/nofp\libgcc.a(_arm_cmpsf2.o)
                              obj\release\src\attenuator.o (__aeabi_fcmplt)
c:/program files (x86)/embitz/2.62/share/armgcc/bin/../lib/gcc/arm-none-eabi/9.3.1/thumb/v6-m/nofp\libgcc.a(_fixunsdfsi.o)
                              obj\release\src\attenuator.o (__aeabi_d2uiz)
c:/program files (x86)/embitz/2.62/share/armgcc/bin/../lib/gcc/arm-none-eabi/9.3.1/thumb/v6-m/nofp\libgcc.a(eqsf2.o)
                              c:/program files (x86)/embitz/2.62/share/armgcc/bin/../lib/gcc/arm-none-eabi/9.3.1/thumb/v6-m/nofp\libgcc.a(_arm_cmpsf2.o) (__eqsf2)
c:/program files (x86)/embitz/2.62/share/armgcc/bin/../lib/gcc/arm-none-eabi/9.3.1/thumb/v6-m/nofp\libgcc.a(gesf2.o)
                              c:/program files (x86)/embitz/2.62/share/armgcc/bin/../lib/gcc/arm-none-eabi/9.3.1/thumb/v6-m/nofp\libgcc.a(_arm_cmpsf2.o) (__gesf2)
c:/program files (x86)/embitz/2.62/share/armgcc/bin/../lib/gcc/arm-none-eabi/9.3.1/thumb/v6-m/nofp\libgcc.a(lesf2.o)
                              c:/program files (x86)/embitz/2.62/share/armgcc/bin/../lib/gcc/arm-none-eabi/9.3.1/thumb/v6-m/nofp\libgcc.a(_arm_cmpsf2.o) (__lesf2)
c:/program files (x86)/embitz/2.62/share/armgcc/bin/../lib/gcc/arm-none-eabi/9.3.1/thumb/v6-m/nofp\libgcc.a(muldf3.o)
                              obj\release\src\attenuator.o (__aeabi_dmul)
c:/program files (x86)/embitz/2.62/share/armgcc/bin/../lib/gcc/arm-none-eabi/9.3.1/thumb/v6-m/nofp\libgcc.a(subdf3.o)
                              c:/program files (x86)/embitz/2.62/share/armgcc/bin/../lib/gcc/arm-none-eabi/9.3.1/thumb/v6-m/nofp\libgcc.a(_fixunsdfsi.o) (__aeabi_dsub)
c:/program files (x86)/embitz/2.62/share/armgcc/bin/../lib/gcc/arm-none-eabi/9.3.1/thumb/v6-m/nofp\libgcc.a(fixdfsi.o)
                              c:/program files (x86)/embitz/2.62/share/armgcc/bin/../lib/gcc/arm-none-eabi/9.3.1/thumb/v6-m/nofp\libgcc.a(_fixunsdfsi.o) (__aeabi_d2iz)
c:/program files (x86)/embitz/2.62/share/armgcc/bin/../lib/gcc/arm-none-eabi/9.3.1/thumb/v6-m/nofp\libgcc.a(extendsfdf2.o)
                              obj\release\src\attenuator.o (__aeabi_f2d)
c:/program files (x86)/embitz/2.62/share/armgcc/bin/../lib/gcc/arm-none-eabi/9.3.1/thumb/v6-m/nofp\libgcc.a(_arm_cmpdf2.o)
                              c:/program files (x86)/embitz/2.62/share/armgcc/bin/../lib/gcc/arm-none-eabi/9.3.1/thumb/v6-m/nofp\libgcc.a(_fixunsdfsi.o) (__aeabi_dcmpge)
c:/program files (x86)/embitz/2.62/share/armgcc/bin/../lib/gcc/arm-none-eabi/9.3.1/thumb/v6-m/nofp\libgcc.a(_clzsi2.o)
                              c:/program files (x86)/embitz/2.62/share/armgcc/bin/../lib/gcc/arm-none-eabi/9.3.1/thumb/v6-m/nofp\libgcc.a(muldf3.o) (__clzsi2)
c:/program files (x86)/embitz/2.62/share/armgcc/bin/../lib/gcc/arm-none-eabi/9.3.1/thumb/v6-m/nofp\libgcc.a(eqdf2.o)
                              c:/program files (x86)/embitz/2.62/share/armgcc/bin/../lib/gcc/arm-none-eabi/9.3.1/thumb/v6-m/nofp\libgcc.a(_arm_cmpdf2.o) (__eqdf2)
c:/program files (x86)/embitz/2.62/share/armgcc/bin/../lib/gcc/arm-none-eabi/9.3.1/thumb/v6-m/nofp\libgcc.a(gedf2.o)
                              c:/program files (x86)/embitz/2.62/share/armgcc/bin/../lib/gcc/arm-none-eabi/9.3.1/thumb/v6-m/nofp\libgcc.a(_arm_cmpdf2.o) (__gedf2)
c:/program files (x86)/embitz/2.62/share/armgcc/bin/../lib/gcc/arm-none-eabi/9.3.1/thumb/v6-m/nofp\libgcc.a(ledf2.o)
                              c:/program files (x86)/embitz/2.62/share/armgcc/bin/../lib/gcc/arm-none-eabi/9.3.1/thumb/v6-m/nofp\libgcc.a(_arm_cmpdf2.o) (__ledf2)
c:/program files (x86)/embitz/2.62/share/armgcc/bin/../lib/gcc/arm-none-eabi/9.3.1/../../../../arm-none-eabi/lib/thumb/v6-m/nofp\libg_nano.a(lib_a-exit.o)
                              c:/program files (x86)/embitz/2.62/share/armgcc/bin/../lib/gcc/arm-none-eabi/9.3.1/../../../../arm-none-eabi/lib/thumb/v6-m/nofp/crt0.o (exit)
c:/program files (x86)/embitz/2.62/share/armgcc/bin/../lib/gcc/arm-none-eabi/9.3.1/../../../../arm-none-eabi/lib/thumb/v6-m/nofp\libg_nano.a(lib_a-impure.o)
                              c:/program files (x86)/embitz/2.62/share/armgcc/bin/../lib/gcc/arm-none-eabi/9.3.1/../../../../arm-none-eabi/lib/thumb/v6-m/nofp\libg_nano.a(lib_a-exit.o) (_global_impure_ptr)
c:/program files (x86)/embitz/2.62/share/armgcc/bin/../lib/gcc/arm-none-eabi/9.3.1/../../../../arm-none-eabi/lib/thumb/v6-m/nofp\libg_nano.a(lib_a-init.o)
                              c:/program files (x86)/embitz/2.62/share/armgcc/bin/../lib/gcc/arm-none-eabi/9.3.1/../../../../arm-none-eabi/lib/thumb/v6-m/nofp/crt0.o (__libc_init_array)
c:/program files (x86)/embitz/2.62/share/armgcc/bin/../lib/gcc/arm-none-eabi/9.3.1/../../../../arm-none-eabi/lib/thumb/v6-m/nofp\libg_nano.a(lib_a-memset.o)
                              c:/program files (x86)/embitz/2.62/share/armgcc/bin/../lib/gcc/arm-none-eabi/9.3.1/../../../../arm-none-eabi/lib/thumb/v6-m/nofp/crt0.o (memset)
c:/program files (x86)/embitz/2.62/share/armgcc/bin/../lib/gcc/arm-none-eabi/9.3.1/../../../../arm-none-eabi/lib/thumb/v6-m/nofp\libnosys.a(_exit.o)
                              c:/program files (x86)/embitz/2.62/share/armgcc/bin/../lib/gcc/arm-none-eabi/9.3.1/../../../../arm-none-eabi/lib/thumb/v6-m/nofp\libg_nano.a(lib_a-exit.o) (_exit)

Allocating common symbols
Common symbol       size              file

MAX2871_reg         0x24              obj\release\src\max2871.o
memory              0x78              obj\release\src\main.o
buffer              0x14              obj\release\src\main.o

Discarded input sections

 .text          0x00000000        0x0 c:/program files (x86)/embitz/2.62/share/armgcc/bin/../lib/gcc/arm-none-eabi/9.3.1/thumb/v6-m/nofp/crti.o
 .data          0x00000000        0x0 c:/program files (x86)/embitz/2.62/share/armgcc/bin/../lib/gcc/arm-none-eabi/9.3.1/thumb/v6-m/nofp/crti.o
 .bss           0x00000000        0x0 c:/program files (x86)/embitz/2.62/share/armgcc/bin/../lib/gcc/arm-none-eabi/9.3.1/thumb/v6-m/nofp/crti.o
 .data          0x00000000        0x4 c:/program files (x86)/embitz/2.62/share/armgcc/bin/../lib/gcc/arm-none-eabi/9.3.1/thumb/v6-m/nofp/crtbegin.o
 .data          0x00000000        0x0 c:/program files (x86)/embitz/2.62/share/armgcc/bin/../lib/gcc/arm-none-eabi/9.3.1/../../../../arm-none-eabi/lib/thumb/v6-m/nofp/crt0.o
 .bss           0x00000000        0x0 c:/program files (x86)/embitz/2.62/share/armgcc/bin/../lib/gcc/arm-none-eabi/9.3.1/../../../../arm-none-eabi/lib/thumb/v6-m/nofp/crt0.o
 .ARM.extab     0x00000000        0x0 c:/program files (x86)/embitz/2.62/share/armgcc/bin/../lib/gcc/arm-none-eabi/9.3.1/../../../../arm-none-eabi/lib/thumb/v6-m/nofp/crt0.o
 .text          0x00000000        0x0 obj\release\src\attenuator.o
 .data          0x00000000        0x0 obj\release\src\attenuator.o
 .bss           0x00000000        0x0 obj\release\src\attenuator.o
 .text.attenuator_set_attenuation
                0x00000000       0x44 obj\release\src\attenuator.o
 .text          0x00000000        0x0 obj\release\src\calibration.o
 .data          0x00000000        0x0 obj\release\src\calibration.o
 .bss           0x00000000        0x0 obj\release\src\calibration.o
 .text.calibrationReturnMaxPower
                0x00000000       0x40 obj\release\src\calibration.o
 .text.calibrationReturnMaxAttenuator
                0x00000000       0x44 obj\release\src\calibration.o
 .rodata.step   0x00000000        0x4 obj\release\src\calibration.o
 .text          0x00000000        0x0 obj\release\src\delay.o
 .data          0x00000000        0x0 obj\release\src\delay.o
 .bss           0x00000000        0x0 obj\release\src\delay.o
 .text          0x00000000        0x0 obj\release\src\display.o
 .data          0x00000000        0x0 obj\release\src\display.o
 .bss           0x00000000        0x0 obj\release\src\display.o
 .text          0x00000000        0x0 obj\release\src\flash.o
 .data          0x00000000        0x0 obj\release\src\flash.o
 .bss           0x00000000        0x0 obj\release\src\flash.o
 .text.flashUnlock
                0x00000000       0x2c obj\release\src\flash.o
 .text.flashLock
                0x00000000       0x10 obj\release\src\flash.o
 .text          0x00000000        0x0 obj\release\src\lcd.o
 .data          0x00000000        0x0 obj\release\src\lcd.o
 .bss           0x00000000        0x0 obj\release\src\lcd.o
 .text.LCD_SetUppNibble
                0x00000000       0x74 obj\release\src\lcd.o
 .text.LCD_Send4bitsIn4bitMode
                0x00000000       0x2c obj\release\src\lcd.o
 .text.LCD_Send8bitsIn4bitMode
                0x00000000       0x50 obj\release\src\lcd.o
 .text.LCD_SendInstruction
                0x00000000       0x20 obj\release\src\lcd.o
 .text.LCD_DisplayClear
                0x00000000        0xc obj\release\src\lcd.o
 .text.LCD_DisplayOn
                0x00000000        0xc obj\release\src\lcd.o
 .text.LCD_CursorOn
                0x00000000        0xc obj\release\src\lcd.o
 .text.LCD_CursorBlink
                0x00000000        0xc obj\release\src\lcd.o
 .text.LCD_PositionXY
                0x00000000       0x34 obj\release\src\lcd.o
 .text.LCD_Shift
                0x00000000       0x48 obj\release\src\lcd.o
 .text.LCD_SendData
                0x00000000       0x28 obj\release\src\lcd.o
 .text.LCD_WriteChar
                0x00000000        0x8 obj\release\src\lcd.o
 .text.LCD_WriteString
                0x00000000       0x20 obj\release\src\lcd.o
 .text.LCD_PulseE
                0x00000000       0x28 obj\release\src\lcd.o
 .text.LCD_Init
                0x00000000       0x68 obj\release\src\lcd.o
 .debug_info    0x00000000      0xef1 obj\release\src\lcd.o
 .debug_abbrev  0x00000000      0x2e6 obj\release\src\lcd.o
 .debug_loc     0x00000000      0x320 obj\release\src\lcd.o
 .debug_aranges
                0x00000000       0x90 obj\release\src\lcd.o
 .debug_ranges  0x00000000       0x80 obj\release\src\lcd.o
 .debug_line    0x00000000      0x520 obj\release\src\lcd.o
 .debug_str     0x00000000      0x6f6 obj\release\src\lcd.o
 .comment       0x00000000       0x4d obj\release\src\lcd.o
 .debug_frame   0x00000000      0x17c obj\release\src\lcd.o
 .ARM.attributes
                0x00000000       0x2c obj\release\src\lcd.o
 .text          0x00000000        0x0 obj\release\src\main.o
 .data          0x00000000        0x0 obj\release\src\main.o
 .bss           0x00000000        0x0 obj\release\src\main.o
 .text          0x00000000        0x0 obj\release\src\max2871.o
 .data          0x00000000        0x0 obj\release\src\max2871.o
 .bss           0x00000000        0x0 obj\release\src\max2871.o
 .text.read_MAX2871
                0x00000000      0x180 obj\release\src\max2871.o
 .text          0x00000000        0x0 obj\release\src\menu.o
 .data          0x00000000        0x0 obj\release\src\menu.o
 .bss           0x00000000        0x0 obj\release\src\menu.o
 .text.menuSaveDataFromWorkingRAMToMemory
                0x00000000       0x30 obj\release\src\menu.o
 .text          0x00000000        0x0 obj\release\src\modulation.o
 .data          0x00000000        0x0 obj\release\src\modulation.o
 .bss           0x00000000        0x0 obj\release\src\modulation.o
 .text          0x00000000        0x0 obj\release\src\special.o
 .data          0x00000000        0x0 obj\release\src\special.o
 .bss           0x00000000        0x0 obj\release\src\special.o
 .text.doSpecialMode
                0x00000000       0xc8 obj\release\src\special.o
 .bss.step      0x00000000        0x4 obj\release\src\special.o
 .data.set_frequency
                0x00000000        0x4 obj\release\src\special.o
 .debug_info    0x00000000      0x18d obj\release\src\special.o
 .debug_abbrev  0x00000000       0xd1 obj\release\src\special.o
 .debug_loc     0x00000000      0x10d obj\release\src\special.o
 .debug_aranges
                0x00000000       0x20 obj\release\src\special.o
 .debug_ranges  0x00000000       0x10 obj\release\src\special.o
 .debug_line    0x00000000      0x21b obj\release\src\special.o
 .debug_str     0x00000000      0x202 obj\release\src\special.o
 .comment       0x00000000       0x4d obj\release\src\special.o
 .debug_frame   0x00000000       0x2c obj\release\src\special.o
 .ARM.attributes
                0x00000000       0x2c obj\release\src\special.o
 .data          0x00000000        0x0 obj\release\src\startup_stm32f0xx.o
 .bss           0x00000000        0x0 obj\release\src\startup_stm32f0xx.o
 .text          0x00000000        0x0 obj\release\src\system_stm32f0xx.o
 .data          0x00000000        0x0 obj\release\src\system_stm32f0xx.o
 .bss           0x00000000        0x0 obj\release\src\system_stm32f0xx.o
 .text.SystemCoreClockUpdate
                0x00000000       0x64 obj\release\src\system_stm32f0xx.o
 .data.AHBPrescTable
                0x00000000       0x10 obj\release\src\system_stm32f0xx.o
 .data.SystemCoreClock
                0x00000000        0x4 obj\release\src\system_stm32f0xx.o
 .text          0x00000000        0x0 obj\release\src\usart.o
 .data          0x00000000        0x0 obj\release\src\usart.o
 .bss           0x00000000        0x0 obj\release\src\usart.o
 .text.usart_send_byte
                0x00000000       0x14 obj\release\src\usart.o
 .text.compare_string
                0x00000000       0x30 obj\release\src\usart.o
 .text          0x00000000      0x114 c:/program files (x86)/embitz/2.62/share/armgcc/bin/../lib/gcc/arm-none-eabi/9.3.1/thumb/v6-m/nofp\libgcc.a(_udivsi3.o)
 .data          0x00000000        0x0 c:/program files (x86)/embitz/2.62/share/armgcc/bin/../lib/gcc/arm-none-eabi/9.3.1/thumb/v6-m/nofp\libgcc.a(_udivsi3.o)
 .bss           0x00000000        0x0 c:/program files (x86)/embitz/2.62/share/armgcc/bin/../lib/gcc/arm-none-eabi/9.3.1/thumb/v6-m/nofp\libgcc.a(_udivsi3.o)
 .debug_frame   0x00000000       0x20 c:/program files (x86)/embitz/2.62/share/armgcc/bin/../lib/gcc/arm-none-eabi/9.3.1/thumb/v6-m/nofp\libgcc.a(_udivsi3.o)
 .ARM.attributes
                0x00000000       0x1e c:/program files (x86)/embitz/2.62/share/armgcc/bin/../lib/gcc/arm-none-eabi/9.3.1/thumb/v6-m/nofp\libgcc.a(_udivsi3.o)
 .data          0x00000000        0x0 c:/program files (x86)/embitz/2.62/share/armgcc/bin/../lib/gcc/arm-none-eabi/9.3.1/thumb/v6-m/nofp\libgcc.a(_divsi3.o)
 .bss           0x00000000        0x0 c:/program files (x86)/embitz/2.62/share/armgcc/bin/../lib/gcc/arm-none-eabi/9.3.1/thumb/v6-m/nofp\libgcc.a(_divsi3.o)
 .data          0x00000000        0x0 c:/program files (x86)/embitz/2.62/share/armgcc/bin/../lib/gcc/arm-none-eabi/9.3.1/thumb/v6-m/nofp\libgcc.a(_dvmd_tls.o)
 .bss           0x00000000        0x0 c:/program files (x86)/embitz/2.62/share/armgcc/bin/../lib/gcc/arm-none-eabi/9.3.1/thumb/v6-m/nofp\libgcc.a(_dvmd_tls.o)
 .text          0x00000000       0x74 c:/program files (x86)/embitz/2.62/share/armgcc/bin/../lib/gcc/arm-none-eabi/9.3.1/thumb/v6-m/nofp\libgcc.a(_arm_cmpsf2.o)
 .data          0x00000000        0x0 c:/program files (x86)/embitz/2.62/share/armgcc/bin/../lib/gcc/arm-none-eabi/9.3.1/thumb/v6-m/nofp\libgcc.a(_arm_cmpsf2.o)
 .bss           0x00000000        0x0 c:/program files (x86)/embitz/2.62/share/armgcc/bin/../lib/gcc/arm-none-eabi/9.3.1/thumb/v6-m/nofp\libgcc.a(_arm_cmpsf2.o)
 .ARM.attributes
                0x00000000       0x1e c:/program files (x86)/embitz/2.62/share/armgcc/bin/../lib/gcc/arm-none-eabi/9.3.1/thumb/v6-m/nofp\libgcc.a(_arm_cmpsf2.o)
 .text          0x00000000       0x3c c:/program files (x86)/embitz/2.62/share/armgcc/bin/../lib/gcc/arm-none-eabi/9.3.1/thumb/v6-m/nofp\libgcc.a(_fixunsdfsi.o)
 .data          0x00000000        0x0 c:/program files (x86)/embitz/2.62/share/armgcc/bin/../lib/gcc/arm-none-eabi/9.3.1/thumb/v6-m/nofp\libgcc.a(_fixunsdfsi.o)
 .bss           0x00000000        0x0 c:/program files (x86)/embitz/2.62/share/armgcc/bin/../lib/gcc/arm-none-eabi/9.3.1/thumb/v6-m/nofp\libgcc.a(_fixunsdfsi.o)
 .debug_frame   0x00000000       0x2c c:/program files (x86)/embitz/2.62/share/armgcc/bin/../lib/gcc/arm-none-eabi/9.3.1/thumb/v6-m/nofp\libgcc.a(_fixunsdfsi.o)
 .ARM.attributes
                0x00000000       0x2c c:/program files (x86)/embitz/2.62/share/armgcc/bin/../lib/gcc/arm-none-eabi/9.3.1/thumb/v6-m/nofp\libgcc.a(_fixunsdfsi.o)
 .text          0x00000000       0x50 c:/program files (x86)/embitz/2.62/share/armgcc/bin/../lib/gcc/arm-none-eabi/9.3.1/thumb/v6-m/nofp\libgcc.a(eqsf2.o)
 .data          0x00000000        0x0 c:/program files (x86)/embitz/2.62/share/armgcc/bin/../lib/gcc/arm-none-eabi/9.3.1/thumb/v6-m/nofp\libgcc.a(eqsf2.o)
 .bss           0x00000000        0x0 c:/program files (x86)/embitz/2.62/share/armgcc/bin/../lib/gcc/arm-none-eabi/9.3.1/thumb/v6-m/nofp\libgcc.a(eqsf2.o)
 .debug_frame   0x00000000       0x2c c:/program files (x86)/embitz/2.62/share/armgcc/bin/../lib/gcc/arm-none-eabi/9.3.1/thumb/v6-m/nofp\libgcc.a(eqsf2.o)
 .ARM.attributes
                0x00000000       0x2c c:/program files (x86)/embitz/2.62/share/armgcc/bin/../lib/gcc/arm-none-eabi/9.3.1/thumb/v6-m/nofp\libgcc.a(eqsf2.o)
 .text          0x00000000       0x98 c:/program files (x86)/embitz/2.62/share/armgcc/bin/../lib/gcc/arm-none-eabi/9.3.1/thumb/v6-m/nofp\libgcc.a(gesf2.o)
 .data          0x00000000        0x0 c:/program files (x86)/embitz/2.62/share/armgcc/bin/../lib/gcc/arm-none-eabi/9.3.1/thumb/v6-m/nofp\libgcc.a(gesf2.o)
 .bss           0x00000000        0x0 c:/program files (x86)/embitz/2.62/share/armgcc/bin/../lib/gcc/arm-none-eabi/9.3.1/thumb/v6-m/nofp\libgcc.a(gesf2.o)
 .debug_frame   0x00000000       0x30 c:/program files (x86)/embitz/2.62/share/armgcc/bin/../lib/gcc/arm-none-eabi/9.3.1/thumb/v6-m/nofp\libgcc.a(gesf2.o)
 .ARM.attributes
                0x00000000       0x2c c:/program files (x86)/embitz/2.62/share/armgcc/bin/../lib/gcc/arm-none-eabi/9.3.1/thumb/v6-m/nofp\libgcc.a(gesf2.o)
 .text          0x00000000       0x94 c:/program files (x86)/embitz/2.62/share/armgcc/bin/../lib/gcc/arm-none-eabi/9.3.1/thumb/v6-m/nofp\libgcc.a(lesf2.o)
 .data          0x00000000        0x0 c:/program files (x86)/embitz/2.62/share/armgcc/bin/../lib/gcc/arm-none-eabi/9.3.1/thumb/v6-m/nofp\libgcc.a(lesf2.o)
 .bss           0x00000000        0x0 c:/program files (x86)/embitz/2.62/share/armgcc/bin/../lib/gcc/arm-none-eabi/9.3.1/thumb/v6-m/nofp\libgcc.a(lesf2.o)
 .debug_frame   0x00000000       0x30 c:/program files (x86)/embitz/2.62/share/armgcc/bin/../lib/gcc/arm-none-eabi/9.3.1/thumb/v6-m/nofp\libgcc.a(lesf2.o)
 .ARM.attributes
                0x00000000       0x2c c:/program files (x86)/embitz/2.62/share/armgcc/bin/../lib/gcc/arm-none-eabi/9.3.1/thumb/v6-m/nofp\libgcc.a(lesf2.o)
 .text          0x00000000      0x4d8 c:/program files (x86)/embitz/2.62/share/armgcc/bin/../lib/gcc/arm-none-eabi/9.3.1/thumb/v6-m/nofp\libgcc.a(muldf3.o)
 .data          0x00000000        0x0 c:/program files (x86)/embitz/2.62/share/armgcc/bin/../lib/gcc/arm-none-eabi/9.3.1/thumb/v6-m/nofp\libgcc.a(muldf3.o)
 .bss           0x00000000        0x0 c:/program files (x86)/embitz/2.62/share/armgcc/bin/../lib/gcc/arm-none-eabi/9.3.1/thumb/v6-m/nofp\libgcc.a(muldf3.o)
 .rodata        0x00000000       0x40 c:/program files (x86)/embitz/2.62/share/armgcc/bin/../lib/gcc/arm-none-eabi/9.3.1/thumb/v6-m/nofp\libgcc.a(muldf3.o)
 .debug_frame   0x00000000       0x3c c:/program files (x86)/embitz/2.62/share/armgcc/bin/../lib/gcc/arm-none-eabi/9.3.1/thumb/v6-m/nofp\libgcc.a(muldf3.o)
 .ARM.attributes
                0x00000000       0x2c c:/program files (x86)/embitz/2.62/share/armgcc/bin/../lib/gcc/arm-none-eabi/9.3.1/thumb/v6-m/nofp\libgcc.a(muldf3.o)
 .text          0x00000000      0x724 c:/program files (x86)/embitz/2.62/share/armgcc/bin/../lib/gcc/arm-none-eabi/9.3.1/thumb/v6-m/nofp\libgcc.a(subdf3.o)
 .data          0x00000000        0x0 c:/program files (x86)/embitz/2.62/share/armgcc/bin/../lib/gcc/arm-none-eabi/9.3.1/thumb/v6-m/nofp\libgcc.a(subdf3.o)
 .bss           0x00000000        0x0 c:/program files (x86)/embitz/2.62/share/armgcc/bin/../lib/gcc/arm-none-eabi/9.3.1/thumb/v6-m/nofp\libgcc.a(subdf3.o)
 .debug_frame   0x00000000       0x3c c:/program files (x86)/embitz/2.62/share/armgcc/bin/../lib/gcc/arm-none-eabi/9.3.1/thumb/v6-m/nofp\libgcc.a(subdf3.o)
 .ARM.attributes
                0x00000000       0x2c c:/program files (x86)/embitz/2.62/share/armgcc/bin/../lib/gcc/arm-none-eabi/9.3.1/thumb/v6-m/nofp\libgcc.a(subdf3.o)
 .text          0x00000000       0x6c c:/program files (x86)/embitz/2.62/share/armgcc/bin/../lib/gcc/arm-none-eabi/9.3.1/thumb/v6-m/nofp\libgcc.a(fixdfsi.o)
 .data          0x00000000        0x0 c:/program files (x86)/embitz/2.62/share/armgcc/bin/../lib/gcc/arm-none-eabi/9.3.1/thumb/v6-m/nofp\libgcc.a(fixdfsi.o)
 .bss           0x00000000        0x0 c:/program files (x86)/embitz/2.62/share/armgcc/bin/../lib/gcc/arm-none-eabi/9.3.1/thumb/v6-m/nofp\libgcc.a(fixdfsi.o)
 .debug_frame   0x00000000       0x2c c:/program files (x86)/embitz/2.62/share/armgcc/bin/../lib/gcc/arm-none-eabi/9.3.1/thumb/v6-m/nofp\libgcc.a(fixdfsi.o)
 .ARM.attributes
                0x00000000       0x2c c:/program files (x86)/embitz/2.62/share/armgcc/bin/../lib/gcc/arm-none-eabi/9.3.1/thumb/v6-m/nofp\libgcc.a(fixdfsi.o)
 .text          0x00000000       0x90 c:/program files (x86)/embitz/2.62/share/armgcc/bin/../lib/gcc/arm-none-eabi/9.3.1/thumb/v6-m/nofp\libgcc.a(extendsfdf2.o)
 .data          0x00000000        0x0 c:/program files (x86)/embitz/2.62/share/armgcc/bin/../lib/gcc/arm-none-eabi/9.3.1/thumb/v6-m/nofp\libgcc.a(extendsfdf2.o)
 .bss           0x00000000        0x0 c:/program files (x86)/embitz/2.62/share/armgcc/bin/../lib/gcc/arm-none-eabi/9.3.1/thumb/v6-m/nofp\libgcc.a(extendsfdf2.o)
 .debug_frame   0x00000000       0x2c c:/program files (x86)/embitz/2.62/share/armgcc/bin/../lib/gcc/arm-none-eabi/9.3.1/thumb/v6-m/nofp\libgcc.a(extendsfdf2.o)
 .ARM.attributes
                0x00000000       0x2c c:/program files (x86)/embitz/2.62/share/armgcc/bin/../lib/gcc/arm-none-eabi/9.3.1/thumb/v6-m/nofp\libgcc.a(extendsfdf2.o)
 .text          0x00000000       0x7c c:/program files (x86)/embitz/2.62/share/armgcc/bin/../lib/gcc/arm-none-eabi/9.3.1/thumb/v6-m/nofp\libgcc.a(_arm_cmpdf2.o)
 .data          0x00000000        0x0 c:/program files (x86)/embitz/2.62/share/armgcc/bin/../lib/gcc/arm-none-eabi/9.3.1/thumb/v6-m/nofp\libgcc.a(_arm_cmpdf2.o)
 .bss           0x00000000        0x0 c:/program files (x86)/embitz/2.62/share/armgcc/bin/../lib/gcc/arm-none-eabi/9.3.1/thumb/v6-m/nofp\libgcc.a(_arm_cmpdf2.o)
 .ARM.attributes
                0x00000000       0x1e c:/program files (x86)/embitz/2.62/share/armgcc/bin/../lib/gcc/arm-none-eabi/9.3.1/thumb/v6-m/nofp\libgcc.a(_arm_cmpdf2.o)
 .text          0x00000000       0x3c c:/program files (x86)/embitz/2.62/share/armgcc/bin/../lib/gcc/arm-none-eabi/9.3.1/thumb/v6-m/nofp\libgcc.a(_clzsi2.o)
 .data          0x00000000        0x0 c:/program files (x86)/embitz/2.62/share/armgcc/bin/../lib/gcc/arm-none-eabi/9.3.1/thumb/v6-m/nofp\libgcc.a(_clzsi2.o)
 .bss           0x00000000        0x0 c:/program files (x86)/embitz/2.62/share/armgcc/bin/../lib/gcc/arm-none-eabi/9.3.1/thumb/v6-m/nofp\libgcc.a(_clzsi2.o)
 .ARM.attributes
                0x00000000       0x1e c:/program files (x86)/embitz/2.62/share/armgcc/bin/../lib/gcc/arm-none-eabi/9.3.1/thumb/v6-m/nofp\libgcc.a(_clzsi2.o)
 .text          0x00000000       0x78 c:/program files (x86)/embitz/2.62/share/armgcc/bin/../lib/gcc/arm-none-eabi/9.3.1/thumb/v6-m/nofp\libgcc.a(eqdf2.o)
 .data          0x00000000        0x0 c:/program files (x86)/embitz/2.62/share/armgcc/bin/../lib/gcc/arm-none-eabi/9.3.1/thumb/v6-m/nofp\libgcc.a(eqdf2.o)
 .bss           0x00000000        0x0 c:/program files (x86)/embitz/2.62/share/armgcc/bin/../lib/gcc/arm-none-eabi/9.3.1/thumb/v6-m/nofp\libgcc.a(eqdf2.o)
 .debug_frame   0x00000000       0x38 c:/program files (x86)/embitz/2.62/share/armgcc/bin/../lib/gcc/arm-none-eabi/9.3.1/thumb/v6-m/nofp\libgcc.a(eqdf2.o)
 .ARM.attributes
                0x00000000       0x2c c:/program files (x86)/embitz/2.62/share/armgcc/bin/../lib/gcc/arm-none-eabi/9.3.1/thumb/v6-m/nofp\libgcc.a(eqdf2.o)
 .text          0x00000000       0xe4 c:/program files (x86)/embitz/2.62/share/armgcc/bin/../lib/gcc/arm-none-eabi/9.3.1/thumb/v6-m/nofp\libgcc.a(gedf2.o)
 .data          0x00000000        0x0 c:/program files (x86)/embitz/2.62/share/armgcc/bin/../lib/gcc/arm-none-eabi/9.3.1/thumb/v6-m/nofp\libgcc.a(gedf2.o)
 .bss           0x00000000        0x0 c:/program files (x86)/embitz/2.62/share/armgcc/bin/../lib/gcc/arm-none-eabi/9.3.1/thumb/v6-m/nofp\libgcc.a(gedf2.o)
 .debug_frame   0x00000000       0x38 c:/program files (x86)/embitz/2.62/share/armgcc/bin/../lib/gcc/arm-none-eabi/9.3.1/thumb/v6-m/nofp\libgcc.a(gedf2.o)
 .ARM.attributes
                0x00000000       0x2c c:/program files (x86)/embitz/2.62/share/armgcc/bin/../lib/gcc/arm-none-eabi/9.3.1/thumb/v6-m/nofp\libgcc.a(gedf2.o)
 .text          0x00000000       0xe0 c:/program files (x86)/embitz/2.62/share/armgcc/bin/../lib/gcc/arm-none-eabi/9.3.1/thumb/v6-m/nofp\libgcc.a(ledf2.o)
 .data          0x00000000        0x0 c:/program files (x86)/embitz/2.62/share/armgcc/bin/../lib/gcc/arm-none-eabi/9.3.1/thumb/v6-m/nofp\libgcc.a(ledf2.o)
 .bss           0x00000000        0x0 c:/program files (x86)/embitz/2.62/share/armgcc/bin/../lib/gcc/arm-none-eabi/9.3.1/thumb/v6-m/nofp\libgcc.a(ledf2.o)
 .debug_frame   0x00000000       0x38 c:/program files (x86)/embitz/2.62/share/armgcc/bin/../lib/gcc/arm-none-eabi/9.3.1/thumb/v6-m/nofp\libgcc.a(ledf2.o)
 .ARM.attributes
                0x00000000       0x2c c:/program files (x86)/embitz/2.62/share/armgcc/bin/../lib/gcc/arm-none-eabi/9.3.1/thumb/v6-m/nofp\libgcc.a(ledf2.o)
 .text          0x00000000        0x0 c:/program files (x86)/embitz/2.62/share/armgcc/bin/../lib/gcc/arm-none-eabi/9.3.1/../../../../arm-none-eabi/lib/thumb/v6-m/nofp\libg_nano.a(lib_a-exit.o)
 .data          0x00000000        0x0 c:/program files (x86)/embitz/2.62/share/armgcc/bin/../lib/gcc/arm-none-eabi/9.3.1/../../../../arm-none-eabi/lib/thumb/v6-m/nofp\libg_nano.a(lib_a-exit.o)
 .bss           0x00000000        0x0 c:/program files (x86)/embitz/2.62/share/armgcc/bin/../lib/gcc/arm-none-eabi/9.3.1/../../../../arm-none-eabi/lib/thumb/v6-m/nofp\libg_nano.a(lib_a-exit.o)
 .text          0x00000000        0x0 c:/program files (x86)/embitz/2.62/share/armgcc/bin/../lib/gcc/arm-none-eabi/9.3.1/../../../../arm-none-eabi/lib/thumb/v6-m/nofp\libg_nano.a(lib_a-impure.o)
 .data          0x00000000        0x0 c:/program files (x86)/embitz/2.62/share/armgcc/bin/../lib/gcc/arm-none-eabi/9.3.1/../../../../arm-none-eabi/lib/thumb/v6-m/nofp\libg_nano.a(lib_a-impure.o)
 .bss           0x00000000        0x0 c:/program files (x86)/embitz/2.62/share/armgcc/bin/../lib/gcc/arm-none-eabi/9.3.1/../../../../arm-none-eabi/lib/thumb/v6-m/nofp\libg_nano.a(lib_a-impure.o)
 .data._impure_ptr
                0x00000000        0x4 c:/program files (x86)/embitz/2.62/share/armgcc/bin/../lib/gcc/arm-none-eabi/9.3.1/../../../../arm-none-eabi/lib/thumb/v6-m/nofp\libg_nano.a(lib_a-impure.o)
 .text          0x00000000        0x0 c:/program files (x86)/embitz/2.62/share/armgcc/bin/../lib/gcc/arm-none-eabi/9.3.1/../../../../arm-none-eabi/lib/thumb/v6-m/nofp\libg_nano.a(lib_a-init.o)
 .data          0x00000000        0x0 c:/program files (x86)/embitz/2.62/share/armgcc/bin/../lib/gcc/arm-none-eabi/9.3.1/../../../../arm-none-eabi/lib/thumb/v6-m/nofp\libg_nano.a(lib_a-init.o)
 .bss           0x00000000        0x0 c:/program files (x86)/embitz/2.62/share/armgcc/bin/../lib/gcc/arm-none-eabi/9.3.1/../../../../arm-none-eabi/lib/thumb/v6-m/nofp\libg_nano.a(lib_a-init.o)
 .text          0x00000000        0x0 c:/program files (x86)/embitz/2.62/share/armgcc/bin/../lib/gcc/arm-none-eabi/9.3.1/../../../../arm-none-eabi/lib/thumb/v6-m/nofp\libg_nano.a(lib_a-memset.o)
 .data          0x00000000        0x0 c:/program files (x86)/embitz/2.62/share/armgcc/bin/../lib/gcc/arm-none-eabi/9.3.1/../../../../arm-none-eabi/lib/thumb/v6-m/nofp\libg_nano.a(lib_a-memset.o)
 .bss           0x00000000        0x0 c:/program files (x86)/embitz/2.62/share/armgcc/bin/../lib/gcc/arm-none-eabi/9.3.1/../../../../arm-none-eabi/lib/thumb/v6-m/nofp\libg_nano.a(lib_a-memset.o)
 .text          0x00000000        0x0 c:/program files (x86)/embitz/2.62/share/armgcc/bin/../lib/gcc/arm-none-eabi/9.3.1/../../../../arm-none-eabi/lib/thumb/v6-m/nofp\libnosys.a(_exit.o)
 .data          0x00000000        0x0 c:/program files (x86)/embitz/2.62/share/armgcc/bin/../lib/gcc/arm-none-eabi/9.3.1/../../../../arm-none-eabi/lib/thumb/v6-m/nofp\libnosys.a(_exit.o)
 .bss           0x00000000        0x0 c:/program files (x86)/embitz/2.62/share/armgcc/bin/../lib/gcc/arm-none-eabi/9.3.1/../../../../arm-none-eabi/lib/thumb/v6-m/nofp\libnosys.a(_exit.o)
 .text          0x00000000        0x0 c:/program files (x86)/embitz/2.62/share/armgcc/bin/../lib/gcc/arm-none-eabi/9.3.1/thumb/v6-m/nofp/crtend.o
 .data          0x00000000        0x0 c:/program files (x86)/embitz/2.62/share/armgcc/bin/../lib/gcc/arm-none-eabi/9.3.1/thumb/v6-m/nofp/crtend.o
 .bss           0x00000000        0x0 c:/program files (x86)/embitz/2.62/share/armgcc/bin/../lib/gcc/arm-none-eabi/9.3.1/thumb/v6-m/nofp/crtend.o
 .text          0x00000000        0x0 c:/program files (x86)/embitz/2.62/share/armgcc/bin/../lib/gcc/arm-none-eabi/9.3.1/thumb/v6-m/nofp/crtn.o
 .data          0x00000000        0x0 c:/program files (x86)/embitz/2.62/share/armgcc/bin/../lib/gcc/arm-none-eabi/9.3.1/thumb/v6-m/nofp/crtn.o
 .bss           0x00000000        0x0 c:/program files (x86)/embitz/2.62/share/armgcc/bin/../lib/gcc/arm-none-eabi/9.3.1/thumb/v6-m/nofp/crtn.o

Memory Configuration

Name             Origin             Length             Attributes
ROM              0x08000000         0x00007c00         xr
RAM              0x20000000         0x00001000         xrw
MEM              0x08007c00         0x00000400         xr
*default*        0x00000000         0xffffffff

Linker script and memory map

LOAD c:/program files (x86)/embitz/2.62/share/armgcc/bin/../lib/gcc/arm-none-eabi/9.3.1/thumb/v6-m/nofp/crti.o
LOAD c:/program files (x86)/embitz/2.62/share/armgcc/bin/../lib/gcc/arm-none-eabi/9.3.1/thumb/v6-m/nofp/crtbegin.o
LOAD c:/program files (x86)/embitz/2.62/share/armgcc/bin/../lib/gcc/arm-none-eabi/9.3.1/../../../../arm-none-eabi/lib/thumb/v6-m/nofp/crt0.o
                0x00000000                __HEAP_SIZE = 0x0
                0x00000100                __STACK_SIZE = 0x100

.mem            0x08007c00       0x78
                0x08007c00                . = ALIGN (0x4)
 *(.mem)
 .mem           0x08007c00       0x78 obj\release\src\main.o
                0x08007c00                program_flash_memory
                0x08007c78                . = ALIGN (0x4)

.text           0x08000000     0x4090
 *(.isr_vector)
 .isr_vector    0x08000000       0xc4 obj\release\src\startup_stm32f0xx.o
                0x08000000                __isr_vector
 *(.text*)
 .text          0x080000c4       0x48 c:/program files (x86)/embitz/2.62/share/armgcc/bin/../lib/gcc/arm-none-eabi/9.3.1/thumb/v6-m/nofp/crtbegin.o
 .text          0x0800010c       0x80 c:/program files (x86)/embitz/2.62/share/armgcc/bin/../lib/gcc/arm-none-eabi/9.3.1/../../../../arm-none-eabi/lib/thumb/v6-m/nofp/crt0.o
                0x0800010c                _stack_init
                0x08000118                _start
                0x08000118                _mainCRTStartup
 .text.attenuator_send
                0x0800018c       0x74 obj\release\src\attenuator.o
                0x0800018c                attenuator_send
 .text.attenuator_init
                0x08000200       0x2c obj\release\src\attenuator.o
                0x08000200                attenuator_init
 .text.calibrationReturnPower
                0x0800022c       0x50 obj\release\src\calibration.o
                0x0800022c                calibrationReturnPower
 .text.calibrationReturnAttenuation
                0x0800027c       0x5c obj\release\src\calibration.o
                0x0800027c                calibrationReturnAttenuation
 .text.timer14_init
                0x080002d8       0x2c obj\release\src\delay.o
                0x080002d8                timer14_init
 .text.delay_ms
                0x08000304       0x30 obj\release\src\delay.o
                0x08000304                delay_ms
 .text.timer16_init
                0x08000334       0x24 obj\release\src\delay.o
                0x08000334                timer16_init
 .text.delay_us
                0x08000358       0x6c obj\release\src\delay.o
                0x08000358                delay_us
 .text.send4bits
                0x080003c4       0xb4 obj\release\src\display.o
                0x080003c4                send4bits
 .text.lcdSendData
                0x08000478       0x34 obj\release\src\display.o
                0x08000478                lcdSendData
 .text.lcdSendCommand
                0x080004ac       0x34 obj\release\src\display.o
                0x080004ac                lcdSendCommand
 .text.lcdInit  0x080004e0       0xc8 obj\release\src\display.o
                0x080004e0                lcdInit
 .text.lcdWriteChar
                0x080005a8        0x8 obj\release\src\display.o
                0x080005a8                lcdWriteChar
 .text.lcdWriteString
                0x080005b0       0x38 obj\release\src\display.o
                0x080005b0                lcdWriteString
 .text.lcdDisplayClear
                0x080005e8       0x10 obj\release\src\display.o
                0x080005e8                lcdDisplayClear
 .text.lcdPositionXY
                0x080005f8       0x30 obj\release\src\display.o
                0x080005f8                lcdPositionXY
 .text.flashPageErase
                0x08000628       0x44 obj\release\src\flash.o
                0x08000628                flashPageErase
 .text.flashWrite
                0x0800066c       0x68 obj\release\src\flash.o
                0x0800066c                flashWrite
 .text.flashWriteChanges
                0x080006d4       0x98 obj\release\src\flash.o
                0x080006d4                flashWriteChanges
 .text.flashCopyFromFlashToRAM
                0x0800076c       0x28 obj\release\src\flash.o
                0x0800076c                flashCopyFromFlashToRAM
 .text.init     0x08000794      0x12c obj\release\src\main.o
                0x08000794                init
 .text.startup.main
                0x080008c0      0x168 obj\release\src\main.o
                0x080008c0                main
 .text.HardFault_Handler
                0x08000a28        0x4 obj\release\src\main.o
                0x08000a28                HardFault_Handler
 .text.SysTick_Handler
                0x08000a2c       0x44 obj\release\src\main.o
                0x08000a2c                SysTick_Handler
 .text.USART1_IRQHandler
                0x08000a70       0x74 obj\release\src\main.o
                0x08000a70                USART1_IRQHandler
 .text.send_MAX2871
                0x08000ae4       0xac obj\release\src\max2871.o
                0x08000ae4                send_MAX2871
 .text.send_MAX2871_all
                0x08000b90       0x54 obj\release\src\max2871.o
                0x08000b90                send_MAX2871_all
 .text.MAX2871_init
                0x08000be4       0xbc obj\release\src\max2871.o
                0x08000be4                MAX2871_init
 .text.MAX2871_set_frequency
                0x08000ca0       0xa0 obj\release\src\max2871.o
                0x08000ca0                MAX2871_set_frequency
 .text.menuLoadDataFromMemoryToWorkingRAM
                0x08000d40       0x30 obj\release\src\menu.o
                0x08000d40                menuLoadDataFromMemoryToWorkingRAM
 .text.menuShow
                0x08000d70      0x28c obj\release\src\menu.o
                0x08000d70                menuShow
 .text.menuShowSpecial
                0x08000ffc       0xa4 obj\release\src\menu.o
                0x08000ffc                menuShowSpecial
 .text.menuShowStatus
                0x080010a0       0x38 obj\release\src\menu.o
                0x080010a0                menuShowStatus
 .text.menuShowFrequency
                0x080010d8       0xf0 obj\release\src\menu.o
                0x080010d8                menuShowFrequency
 .text.moveCursorLR
                0x080011c8      0x224 obj\release\src\menu.o
                0x080011c8                moveCursorLR
 .text.moveCursorUD
                0x080013ec      0x438 obj\release\src\menu.o
                0x080013ec                moveCursorUD
 .text.timer3_init
                0x08001824       0x84 obj\release\src\modulation.o
                0x08001824                timer3_init
 .text.modulationSet
                0x080018a8      0x168 obj\release\src\modulation.o
                0x080018a8                modulationSet
 .text.TIM3_IRQHandler
                0x08001a10       0x48 obj\release\src\modulation.o
                0x08001a10                TIM3_IRQHandler
 .text          0x08001a58       0xa0 obj\release\src\startup_stm32f0xx.o
                0x08001a58                Reset_Handler
                0x08001aa2                NMI_Handler
                0x08001aa6                SVC_Handler
                0x08001aa8                PendSV_Handler
                0x08001aac                Default_Handler
                0x08001aae                WWDG_IRQHandler
                0x08001ab0                PVD_IRQHandler
                0x08001ab2                RTC_IRQHandler
                0x08001ab4                FLASH_IRQHandler
                0x08001ab6                RCC_IRQHandler
                0x08001ab8                EXTI0_1_IRQHandler
                0x08001aba                EXTI2_3_IRQHandler
                0x08001abc                EXTI4_15_IRQHandler
                0x08001abe                TS_IRQHandler
                0x08001ac0                DMA1_Channel1_IRQHandler
                0x08001ac2                DMA1_Channel2_3_IRQHandler
                0x08001ac4                DMA1_Channel4_5_IRQHandler
                0x08001ac6                ADC1_COMP_IRQHandler
                0x08001ac8                TIM1_BRK_UP_TRG_COM_IRQHandler
                0x08001aca                TIM1_CC_IRQHandler
                0x08001acc                TIM2_IRQHandler
                0x08001ad0                TIM6_DAC_IRQHandler
                0x08001ad2                TIM7_IRQHandler
                0x08001ad4                TIM14_IRQHandler
                0x08001ad6                TIM15_IRQHandler
                0x08001ad8                TIM16_IRQHandler
                0x08001ada                TIM17_IRQHandler
                0x08001adc                I2C1_IRQHandler
                0x08001ade                I2C2_IRQHandler
                0x08001ae0                SPI1_IRQHandler
                0x08001ae2                SPI2_IRQHandler
                0x08001ae6                USART2_IRQHandler
                0x08001ae8                USART3_4_IRQHandler
                0x08001aea                CEC_IRQHandler
                0x08001aec                USB_IRQHandler
                0x08001aee                BootRAM
 .text.SystemInit
                0x08001af8       0xb8 obj\release\src\system_stm32f0xx.o
                0x08001af8                SystemInit
 .text.usart_init
                0x08001bb0       0x70 obj\release\src\usart.o
                0x08001bb0                usart_init
 .text.usart_send_string
                0x08001c20       0x28 obj\release\src\usart.o
                0x08001c20                usart_send_string
 .text.int_to_dec_string
                0x08001c48       0x60 obj\release\src\usart.o
                0x08001c48                int_to_dec_string
 .text.usart_send_report
                0x08001ca8      0x160 obj\release\src\usart.o
                0x08001ca8                usart_send_report
 .text.string_to_int
                0x08001e08       0x90 obj\release\src\usart.o
                0x08001e08                string_to_int
 .text.command_decode
                0x08001e98      0x2e4 obj\release\src\usart.o
                0x08001e98                command_decode
 .text          0x0800217c      0x1d4 c:/program files (x86)/embitz/2.62/share/armgcc/bin/../lib/gcc/arm-none-eabi/9.3.1/thumb/v6-m/nofp\libgcc.a(_divsi3.o)
                0x0800217c                __divsi3
                0x0800217c                __aeabi_idiv
                0x08002348                __aeabi_idivmod
 .text          0x08002350        0x4 c:/program files (x86)/embitz/2.62/share/armgcc/bin/../lib/gcc/arm-none-eabi/9.3.1/thumb/v6-m/nofp\libgcc.a(_dvmd_tls.o)
                0x08002350                __aeabi_idiv0
                0x08002350                __aeabi_ldiv0
 .text.exit     0x08002354       0x2c c:/program files (x86)/embitz/2.62/share/armgcc/bin/../lib/gcc/arm-none-eabi/9.3.1/../../../../arm-none-eabi/lib/thumb/v6-m/nofp\libg_nano.a(lib_a-exit.o)
                0x08002354                exit
 .text.__libc_init_array
                0x08002380       0x48 c:/program files (x86)/embitz/2.62/share/armgcc/bin/../lib/gcc/arm-none-eabi/9.3.1/../../../../arm-none-eabi/lib/thumb/v6-m/nofp\libg_nano.a(lib_a-init.o)
                0x08002380                __libc_init_array
 .text.memset   0x080023c8       0x10 c:/program files (x86)/embitz/2.62/share/armgcc/bin/../lib/gcc/arm-none-eabi/9.3.1/../../../../arm-none-eabi/lib/thumb/v6-m/nofp\libg_nano.a(lib_a-memset.o)
                0x080023c8                memset
 .text._exit    0x080023d8        0x4 c:/program files (x86)/embitz/2.62/share/armgcc/bin/../lib/gcc/arm-none-eabi/9.3.1/../../../../arm-none-eabi/lib/thumb/v6-m/nofp\libnosys.a(_exit.o)
                0x080023d8                _exit
 *(.init)
 .init          0x080023dc        0x4 c:/program files (x86)/embitz/2.62/share/armgcc/bin/../lib/gcc/arm-none-eabi/9.3.1/thumb/v6-m/nofp/crti.o
                0x080023dc                _init
 .init          0x080023e0        0x8 c:/program files (x86)/embitz/2.62/share/armgcc/bin/../lib/gcc/arm-none-eabi/9.3.1/thumb/v6-m/nofp/crtn.o
 *(.fini)
 .fini          0x080023e8        0x4 c:/program files (x86)/embitz/2.62/share/armgcc/bin/../lib/gcc/arm-none-eabi/9.3.1/thumb/v6-m/nofp/crti.o
                0x080023e8                _fini
 .fini          0x080023ec        0x8 c:/program files (x86)/embitz/2.62/share/armgcc/bin/../lib/gcc/arm-none-eabi/9.3.1/thumb/v6-m/nofp/crtn.o
 *crtbegin.o(.ctors)
 *crtbegin?.o(.ctors)
 *(EXCLUDE_FILE(*crtend.o *crtend?.o) .ctors)
 *(SORT_BY_NAME(.ctors.*))
 *(.ctors)
 *crtbegin.o(.dtors)
 *crtbegin?.o(.dtors)
 *(EXCLUDE_FILE(*crtend.o *crtend?.o) .dtors)
 *(SORT_BY_NAME(.dtors.*))
 *(.dtors)
 *(.rodata*)
 .rodata.calibrationMax
                0x080023f4     0x194c obj\release\src\calibration.o
                0x080023f4                calibrationMax
 .rodata.main.str1.4
                0x08003d40       0x3f obj\release\src\main.o
 *fill*         0x08003d7f        0x1 
 .rodata.menuShow.str1.4
                0x08003d80       0x20 obj\release\src\menu.o
 .rodata.menuShowSpecial.str1.4
                0x08003da0       0x72 obj\release\src\menu.o
 *fill*         0x08003e12        0x2 
 .rodata.moveCursorLR.str1.4
                0x08003e14       0x39 obj\release\src\menu.o
 *fill*         0x08003e4d        0x3 
 .rodata.moveCursorUD.str1.4
                0x08003e50       0x46 obj\release\src\menu.o
 *fill*         0x08003e96        0x2 
 .rodata.moveCursorUD
                0x08003e98       0xe8 obj\release\src\menu.o
 .rodata.int_to_dec_string.str1.4
                0x08003f80        0xb obj\release\src\usart.o
 *fill*         0x08003f8b        0x1 
 .rodata.usart_send_report.str1.4
                0x08003f8c        0xd obj\release\src\usart.o
                                 0x15 (size before relaxing)
 *fill*         0x08003f99        0x3 
 .rodata.command_decode.str1.4
                0x08003f9c       0xea obj\release\src\usart.o
 *fill*         0x08004086        0x2 
 .rodata._global_impure_ptr
                0x08004088        0x4 c:/program files (x86)/embitz/2.62/share/armgcc/bin/../lib/gcc/arm-none-eabi/9.3.1/../../../../arm-none-eabi/lib/thumb/v6-m/nofp\libg_nano.a(lib_a-impure.o)
                0x08004088                _global_impure_ptr
 *(.eh_frame*)
 .eh_frame      0x0800408c        0x0 c:/program files (x86)/embitz/2.62/share/armgcc/bin/../lib/gcc/arm-none-eabi/9.3.1/thumb/v6-m/nofp/crtbegin.o
 .eh_frame      0x0800408c        0x4 c:/program files (x86)/embitz/2.62/share/armgcc/bin/../lib/gcc/arm-none-eabi/9.3.1/thumb/v6-m/nofp/crtend.o

.glue_7         0x08004090        0x0
 .glue_7        0x08004090        0x0 linker stubs

.glue_7t        0x08004090        0x0
 .glue_7t       0x08004090        0x0 linker stubs

.vfp11_veneer   0x08004090        0x0
 .vfp11_veneer  0x08004090        0x0 linker stubs

.v4_bx          0x08004090        0x0
 .v4_bx         0x08004090        0x0 linker stubs

.iplt           0x08004090        0x0
 .iplt          0x08004090        0x0 c:/program files (x86)/embitz/2.62/share/armgcc/bin/../lib/gcc/arm-none-eabi/9.3.1/thumb/v6-m/nofp/crtbegin.o

.ARM.extab
 *(.ARM.extab* .gnu.linkonce.armextab.*)
                0x08004090                __exidx_start = .

.ARM.exidx      0x08004090        0x8
 *(.ARM.exidx* .gnu.linkonce.armexidx.*)
 .ARM.exidx     0x08004090        0x8 c:/program files (x86)/embitz/2.62/share/armgcc/bin/../lib/gcc/arm-none-eabi/9.3.1/../../../../arm-none-eabi/lib/thumb/v6-m/nofp/crt0.o
                                 0x10 (size before relaxing)
                0x08004098                __exidx_end = .
                0x08004098                __etext = .

.rel.dyn        0x08004098        0x0
 .rel.iplt      0x08004098        0x0 c:/program files (x86)/embitz/2.62/share/armgcc/bin/../lib/gcc/arm-none-eabi/9.3.1/thumb/v6-m/nofp/crtbegin.o

.data           0x20000000       0x70 load address 0x08004098
                0x20000000                __data_start__ = .
 *(vtable)
 *(.data*)
 .data.status   0x20000000        0x1 obj\release\src\main.o
                0x20000000                status
 *fill*         0x20000001        0x3 
 .data.denominator
                0x20000004        0x4 obj\release\src\modulation.o
                0x20000004                denominator
 .data.impure_data
                0x20000008       0x60 c:/program files (x86)/embitz/2.62/share/armgcc/bin/../lib/gcc/arm-none-eabi/9.3.1/../../../../arm-none-eabi/lib/thumb/v6-m/nofp\libg_nano.a(lib_a-impure.o)
                0x20000068                . = ALIGN (0x4)
                0x20000068                PROVIDE (__preinit_array_start = .)
 *(.preinit_array)
                0x20000068                PROVIDE (__preinit_array_end = .)
                0x20000068                . = ALIGN (0x4)
                0x20000068                PROVIDE (__init_array_start = .)
 *(SORT_BY_NAME(.init_array.*))
 *(.init_array)
 .init_array    0x20000068        0x4 c:/program files (x86)/embitz/2.62/share/armgcc/bin/../lib/gcc/arm-none-eabi/9.3.1/thumb/v6-m/nofp/crtbegin.o
                0x2000006c                PROVIDE (__init_array_end = .)
                0x2000006c                . = ALIGN (0x4)
                [!provide]                PROVIDE (__fini_array_start = .)
 *(SORT_BY_NAME(.fini_array.*))
 *(.fini_array)
 .fini_array    0x2000006c        0x4 c:/program files (x86)/embitz/2.62/share/armgcc/bin/../lib/gcc/arm-none-eabi/9.3.1/thumb/v6-m/nofp/crtbegin.o
                [!provide]                PROVIDE (__fini_array_end = .)
                0x20000070                . = ALIGN (0x4)
                0x20000070                __data_end__ = .

.igot.plt       0x20000070        0x0 load address 0x08004108
 .igot.plt      0x20000070        0x0 c:/program files (x86)/embitz/2.62/share/armgcc/bin/../lib/gcc/arm-none-eabi/9.3.1/thumb/v6-m/nofp/crtbegin.o

.bss            0x20000070      0x104 load address 0x08004108
                0x20000070                __bss_start__ = .
 *(.bss*)
 .bss           0x20000070       0x1c c:/program files (x86)/embitz/2.62/share/armgcc/bin/../lib/gcc/arm-none-eabi/9.3.1/thumb/v6-m/nofp/crtbegin.o
 .bss.buff_index
                0x2000008c        0x4 obj\release\src\main.o
                0x2000008c                buff_index
 .bss.cursor    0x20000090        0x4 obj\release\src\main.o
                0x20000090                cursor
 .bss.decode_command
                0x20000094        0x4 obj\release\src\main.o
                0x20000094                decode_command
 .bss.frequency
                0x20000098        0x4 obj\release\src\main.o
                0x20000098                frequency
 .bss.frequency_flash
                0x2000009c        0x4 obj\release\src\main.o
                0x2000009c                frequency_flash
 .bss.frequency_output
                0x200000a0        0x4 obj\release\src\main.o
                0x200000a0                frequency_output
 .bss.mode      0x200000a4        0x1 obj\release\src\main.o
                0x200000a4                mode
 *fill*         0x200000a5        0x3 
 .bss.modulation
                0x200000a8        0x4 obj\release\src\main.o
                0x200000a8                modulation
 .bss.power     0x200000ac        0x4 obj\release\src\main.o
                0x200000ac                power
 .bss.program   0x200000b0        0x4 obj\release\src\main.o
                0x200000b0                program
 .bss.programSpecial
                0x200000b4        0x4 obj\release\src\main.o
                0x200000b4                programSpecial
 .bss.status_change
                0x200000b8        0x4 obj\release\src\main.o
                0x200000b8                status_change
 .bss.denominator_i
                0x200000bc        0x4 obj\release\src\modulation.o
                0x200000bc                denominator_i
 .bss.numerator
                0x200000c0        0x4 obj\release\src\modulation.o
                0x200000c0                numerator
 *(COMMON)
 COMMON         0x200000c4       0x8c obj\release\src\main.o
                0x200000c4                memory
                0x2000013c                buffer
 COMMON         0x20000150       0x24 obj\release\src\max2871.o
                0x20000150                MAX2871_reg
                0x20000174                __bss_end__ = .

.heap           0x20000178        0x0
                0x20000178                __end__ = .
                0x20000178                end = __end__
 *(.heap*)
 .heap          0x20000178        0x0 obj\release\src\startup_stm32f0xx.o
                0x20000178                __HeapLimit = .

.stack_dummy    0x20000178      0x100
 *(.stack)
 .stack         0x20000178      0x100 obj\release\src\startup_stm32f0xx.o
                0x20001000                __StackTop = (ORIGIN (RAM) + LENGTH (RAM))
                0x20000f00                __StackLimit = (__StackTop - SIZEOF (.stack_dummy))
                0x20001000                PROVIDE (__stack = __StackTop)
                0x00000001                ASSERT ((__StackLimit >= __HeapLimit), region RAM overflowed with stack)
LOAD obj\release\src\attenuator.o
LOAD obj\release\src\calibration.o
LOAD obj\release\src\delay.o
LOAD obj\release\src\display.o
LOAD obj\release\src\flash.o
LOAD obj\release\src\lcd.o
LOAD obj\release\src\main.o
LOAD obj\release\src\max2871.o
LOAD obj\release\src\menu.o
LOAD obj\release\src\modulation.o
LOAD obj\release\src\special.o
LOAD obj\release\src\startup_stm32f0xx.o
LOAD obj\release\src\system_stm32f0xx.o
LOAD obj\release\src\usart.o
START GROUP
LOAD c:/program files (x86)/embitz/2.62/share/armgcc/bin/../lib/gcc/arm-none-eabi/9.3.1/thumb/v6-m/nofp\libgcc.a
LOAD c:/program files (x86)/embitz/2.62/share/armgcc/bin/../lib/gcc/arm-none-eabi/9.3.1/../../../../arm-none-eabi/lib/thumb/v6-m/nofp\libg_nano.a
LOAD c:/program files (x86)/embitz/2.62/share/armgcc/bin/../lib/gcc/arm-none-eabi/9.3.1/../../../../arm-none-eabi/lib/thumb/v6-m/nofp\libc_nano.a
END GROUP
START GROUP
LOAD c:/program files (x86)/embitz/2.62/share/armgcc/bin/../lib/gcc/arm-none-eabi/9.3.1/thumb/v6-m/nofp\libgcc.a
LOAD c:/program files (x86)/embitz/2.62/share/armgcc/bin/../lib/gcc/arm-none-eabi/9.3.1/../../../../arm-none-eabi/lib/thumb/v6-m/nofp\libc_nano.a
LOAD c:/program files (x86)/embitz/2.62/share/armgcc/bin/../lib/gcc/arm-none-eabi/9.3.1/../../../../arm-none-eabi/lib/thumb/v6-m/nofp\libnosys.a
END GROUP
START GROUP
LOAD c:/program files (x86)/embitz/2.62/share/armgcc/bin/../lib/gcc/arm-none-eabi/9.3.1/thumb/v6-m/nofp\libgcc.a
LOAD c:/program files (x86)/embitz/2.62/share/armgcc/bin/../lib/gcc/arm-none-eabi/9.3.1/../../../../arm-none-eabi/lib/thumb/v6-m/nofp\libc_nano.a
LOAD c:/program files (x86)/embitz/2.62/share/armgcc/bin/../lib/gcc/arm-none-eabi/9.3.1/../../../../arm-none-eabi/lib/thumb/v6-m/nofp\libnosys.a
END GROUP
LOAD c:/program files (x86)/embitz/2.62/share/armgcc/bin/../lib/gcc/arm-none-eabi/9.3.1/thumb/v6-m/nofp/crtend.o
LOAD c:/program files (x86)/embitz/2.62/share/armgcc/bin/../lib/gcc/arm-none-eabi/9.3.1/thumb/v6-m/nofp/crtn.o
OUTPUT(bin\Release\EBitz2_IZVOR_6_GHZ_STM32F030K6.elf elf32-littlearm)
LOAD linker stubs

.ARM.attributes
                0x00000000       0x28
 .ARM.attributes
                0x00000000       0x1e c:/program files (x86)/embitz/2.62/share/armgcc/bin/../lib/gcc/arm-none-eabi/9.3.1/thumb/v6-m/nofp/crti.o
 .ARM.attributes
                0x0000001e       0x2c c:/program files (x86)/embitz/2.62/share/armgcc/bin/../lib/gcc/arm-none-eabi/9.3.1/thumb/v6-m/nofp/crtbegin.o
 .ARM.attributes
                0x0000004a       0x1b c:/program files (x86)/embitz/2.62/share/armgcc/bin/../lib/gcc/arm-none-eabi/9.3.1/../../../../arm-none-eabi/lib/thumb/v6-m/nofp/crt0.o
 .ARM.attributes
                0x00000065       0x2c obj\release\src\attenuator.o
 .ARM.attributes
                0x00000091       0x2c obj\release\src\calibration.o
 .ARM.attributes
                0x000000bd       0x2c obj\release\src\delay.o
 .ARM.attributes
                0x000000e9       0x2c obj\release\src\display.o
 .ARM.attributes
                0x00000115       0x2c obj\release\src\flash.o
 .ARM.attributes
                0x00000141       0x2c obj\release\src\main.o
 .ARM.attributes
                0x0000016d       0x2c obj\release\src\max2871.o
 .ARM.attributes
                0x00000199       0x2c obj\release\src\menu.o
 .ARM.attributes
                0x000001c5       0x2c obj\release\src\modulation.o
 .ARM.attributes
                0x000001f1       0x1b obj\release\src\startup_stm32f0xx.o
 .ARM.attributes
                0x0000020c       0x2c obj\release\src\system_stm32f0xx.o
 .ARM.attributes
                0x00000238       0x2c obj\release\src\usart.o
 .ARM.attributes
                0x00000264       0x1e c:/program files (x86)/embitz/2.62/share/armgcc/bin/../lib/gcc/arm-none-eabi/9.3.1/thumb/v6-m/nofp\libgcc.a(_divsi3.o)
 .ARM.attributes
                0x00000282       0x1e c:/program files (x86)/embitz/2.62/share/armgcc/bin/../lib/gcc/arm-none-eabi/9.3.1/thumb/v6-m/nofp\libgcc.a(_dvmd_tls.o)
 .ARM.attributes
                0x000002a0       0x2c c:/program files (x86)/embitz/2.62/share/armgcc/bin/../lib/gcc/arm-none-eabi/9.3.1/../../../../arm-none-eabi/lib/thumb/v6-m/nofp\libg_nano.a(lib_a-exit.o)
 .ARM.attributes
                0x000002cc       0x2c c:/program files (x86)/embitz/2.62/share/armgcc/bin/../lib/gcc/arm-none-eabi/9.3.1/../../../../arm-none-eabi/lib/thumb/v6-m/nofp\libg_nano.a(lib_a-impure.o)
 .ARM.attributes
                0x000002f8       0x2c c:/program files (x86)/embitz/2.62/share/armgcc/bin/../lib/gcc/arm-none-eabi/9.3.1/../../../../arm-none-eabi/lib/thumb/v6-m/nofp\libg_nano.a(lib_a-init.o)
 .ARM.attributes
                0x00000324       0x2c c:/program files (x86)/embitz/2.62/share/armgcc/bin/../lib/gcc/arm-none-eabi/9.3.1/../../../../arm-none-eabi/lib/thumb/v6-m/nofp\libg_nano.a(lib_a-memset.o)
 .ARM.attributes
                0x00000350       0x2c c:/program files (x86)/embitz/2.62/share/armgcc/bin/../lib/gcc/arm-none-eabi/9.3.1/../../../../arm-none-eabi/lib/thumb/v6-m/nofp\libnosys.a(_exit.o)
 .ARM.attributes
                0x0000037c       0x2c c:/program files (x86)/embitz/2.62/share/armgcc/bin/../lib/gcc/arm-none-eabi/9.3.1/thumb/v6-m/nofp/crtend.o
 .ARM.attributes
                0x000003a8       0x1e c:/program files (x86)/embitz/2.62/share/armgcc/bin/../lib/gcc/arm-none-eabi/9.3.1/thumb/v6-m/nofp/crtn.o

.comment        0x00000000       0x4c
 .comment       0x00000000       0x4c obj\release\src\attenuator.o
                                 0x4d (size before relaxing)
 .comment       0x0000004c       0x4d obj\release\src\calibration.o
 .comment       0x0000004c       0x4d obj\release\src\delay.o
 .comment       0x0000004c       0x4d obj\release\src\display.o
 .comment       0x0000004c       0x4d obj\release\src\flash.o
 .comment       0x0000004c       0x4d obj\release\src\main.o
 .comment       0x0000004c       0x4d obj\release\src\max2871.o
 .comment       0x0000004c       0x4d obj\release\src\menu.o
 .comment       0x0000004c       0x4d obj\release\src\modulation.o
 .comment       0x0000004c       0x4d obj\release\src\system_stm32f0xx.o
 .comment       0x0000004c       0x4d obj\release\src\usart.o

.debug_info     0x00000000     0x7eb0
 .debug_info    0x00000000      0x22a obj\release\src\attenuator.o
 .debug_info    0x0000022a      0x378 obj\release\src\calibration.o
 .debug_info    0x000005a2      0xe23 obj\release\src\delay.o
 .debug_info    0x000013c5      0xf23 obj\release\src\display.o
 .debug_info    0x000022e8      0xc2c obj\release\src\flash.o
 .debug_info    0x00002f14     0x132a obj\release\src\main.o
 .debug_info    0x0000423e      0x5cb obj\release\src\max2871.o
 .debug_info    0x00004809      0xbaf obj\release\src\menu.o
 .debug_info    0x000053b8     0x1031 obj\release\src\modulation.o
 .debug_info    0x000063e9       0x26 obj\release\src\startup_stm32f0xx.o
 .debug_info    0x0000640f      0x2f2 obj\release\src\system_stm32f0xx.o
 .debug_info    0x00006701     0x17af obj\release\src\usart.o

.debug_abbrev   0x00000000     0x1b73
 .debug_abbrev  0x00000000      0x17d obj\release\src\attenuator.o
 .debug_abbrev  0x0000017d      0x18d obj\release\src\calibration.o
 .debug_abbrev  0x0000030a      0x23b obj\release\src\delay.o
 .debug_abbrev  0x00000545      0x2fb obj\release\src\display.o
 .debug_abbrev  0x00000840      0x2d4 obj\release\src\flash.o
 .debug_abbrev  0x00000b14      0x33a obj\release\src\main.o
 .debug_abbrev  0x00000e4e      0x1d2 obj\release\src\max2871.o
 .debug_abbrev  0x00001020      0x217 obj\release\src\menu.o
 .debug_abbrev  0x00001237      0x31e obj\release\src\modulation.o
 .debug_abbrev  0x00001555       0x14 obj\release\src\startup_stm32f0xx.o
 .debug_abbrev  0x00001569      0x184 obj\release\src\system_stm32f0xx.o
 .debug_abbrev  0x000016ed      0x486 obj\release\src\usart.o

.debug_loc      0x00000000     0x2695
 .debug_loc     0x00000000       0xc2 obj\release\src\attenuator.o
 .debug_loc     0x000000c2      0x4ff obj\release\src\calibration.o
 .debug_loc     0x000005c1      0x1d9 obj\release\src\display.o
 .debug_loc     0x0000079a      0x14c obj\release\src\flash.o
 .debug_loc     0x000008e6       0x83 obj\release\src\main.o
 .debug_loc     0x00000969      0x320 obj\release\src\max2871.o
 .debug_loc     0x00000c89      0x7d6 obj\release\src\menu.o
 .debug_loc     0x0000145f      0x184 obj\release\src\modulation.o
 .debug_loc     0x000015e3      0x12f obj\release\src\system_stm32f0xx.o
 .debug_loc     0x00001712      0xf83 obj\release\src\usart.o

.debug_aranges  0x00000000      0x2e8
 .debug_aranges
                0x00000000       0x30 obj\release\src\attenuator.o
 .debug_aranges
                0x00000030       0x38 obj\release\src\calibration.o
 .debug_aranges
                0x00000068       0x38 obj\release\src\delay.o
 .debug_aranges
                0x000000a0       0x58 obj\release\src\display.o
 .debug_aranges
                0x000000f8       0x48 obj\release\src\flash.o
 .debug_aranges
                0x00000140       0x40 obj\release\src\main.o
 .debug_aranges
                0x00000180       0x40 obj\release\src\max2871.o
 .debug_aranges
                0x000001c0       0x58 obj\release\src\menu.o
 .debug_aranges
                0x00000218       0x30 obj\release\src\modulation.o
 .debug_aranges
                0x00000248       0x20 obj\release\src\startup_stm32f0xx.o
 .debug_aranges
                0x00000268       0x28 obj\release\src\system_stm32f0xx.o
 .debug_aranges
                0x00000290       0x58 obj\release\src\usart.o

.debug_ranges   0x00000000      0x530
 .debug_ranges  0x00000000       0x20 obj\release\src\attenuator.o
 .debug_ranges  0x00000020       0x80 obj\release\src\calibration.o
 .debug_ranges  0x000000a0       0x28 obj\release\src\delay.o
 .debug_ranges  0x000000c8       0x48 obj\release\src\display.o
 .debug_ranges  0x00000110       0x68 obj\release\src\flash.o
 .debug_ranges  0x00000178       0x68 obj\release\src\main.o
 .debug_ranges  0x000001e0       0x30 obj\release\src\max2871.o
 .debug_ranges  0x00000210       0xf8 obj\release\src\menu.o
 .debug_ranges  0x00000308       0x68 obj\release\src\modulation.o
 .debug_ranges  0x00000370       0x18 obj\release\src\system_stm32f0xx.o
 .debug_ranges  0x00000388      0x1a8 obj\release\src\usart.o

.debug_line     0x00000000     0x437c
 .debug_line    0x00000000      0x23f obj\release\src\attenuator.o
 .debug_line    0x0000023f      0x2d8 obj\release\src\calibration.o
 .debug_line    0x00000517      0x574 obj\release\src\delay.o
 .debug_line    0x00000a8b      0x4b6 obj\release\src\display.o
 .debug_line    0x00000f41      0x5db obj\release\src\flash.o
 .debug_line    0x0000151c      0x694 obj\release\src\main.o
 .debug_line    0x00001bb0      0x43a obj\release\src\max2871.o
 .debug_line    0x00001fea      0xd50 obj\release\src\menu.o
 .debug_line    0x00002d3a      0x545 obj\release\src\modulation.o
 .debug_line    0x0000327f       0x99 obj\release\src\startup_stm32f0xx.o
 .debug_line    0x00003318      0x2a6 obj\release\src\system_stm32f0xx.o
 .debug_line    0x000035be      0xdbe obj\release\src\usart.o

.debug_str      0x00000000      0xf37
 .debug_str     0x00000000      0x202 obj\release\src\attenuator.o
                                0x250 (size before relaxing)
 .debug_str     0x00000202       0xd7 obj\release\src\calibration.o
                                0x290 (size before relaxing)
 .debug_str     0x000002d9      0x49a obj\release\src\delay.o
                                0x677 (size before relaxing)
 .debug_str     0x00000773       0x7f obj\release\src\display.o
                                0x66f (size before relaxing)
 .debug_str     0x000007f2       0xe2 obj\release\src\flash.o
                                0x6b6 (size before relaxing)
 .debug_str     0x000008d4      0x3b3 obj\release\src\main.o
                                0xaaf (size before relaxing)
 .debug_str     0x00000c87       0xa8 obj\release\src\max2871.o
                                0x2b7 (size before relaxing)
 .debug_str     0x00000d2f       0x72 obj\release\src\menu.o
                                0x3ed (size before relaxing)
 .debug_str     0x00000da1       0x77 obj\release\src\modulation.o
                                0x8ea (size before relaxing)
 .debug_str     0x00000e18       0x26 obj\release\src\startup_stm32f0xx.o
                                 0x8d (size before relaxing)
 .debug_str     0x00000e3e       0x7b obj\release\src\system_stm32f0xx.o
                                0x2a9 (size before relaxing)
 .debug_str     0x00000eb9       0x7e obj\release\src\usart.o
                                0x988 (size before relaxing)

.debug_frame    0x00000000      0x6ac
 .debug_frame   0x00000000       0x64 obj\release\src\attenuator.o
 .debug_frame   0x00000064       0x80 obj\release\src\calibration.o
 .debug_frame   0x000000e4       0x50 obj\release\src\delay.o
 .debug_frame   0x00000134       0xcc obj\release\src\display.o
 .debug_frame   0x00000200       0x84 obj\release\src\flash.o
 .debug_frame   0x00000284       0x7c obj\release\src\main.o
 .debug_frame   0x00000300       0xb8 obj\release\src\max2871.o
 .debug_frame   0x000003b8       0xe4 obj\release\src\menu.o
 .debug_frame   0x0000049c       0x54 obj\release\src\modulation.o
 .debug_frame   0x000004f0       0x38 obj\release\src\system_stm32f0xx.o
 .debug_frame   0x00000528       0xd0 obj\release\src\usart.o
 .debug_frame   0x000005f8       0x20 c:/program files (x86)/embitz/2.62/share/armgcc/bin/../lib/gcc/arm-none-eabi/9.3.1/thumb/v6-m/nofp\libgcc.a(_divsi3.o)
 .debug_frame   0x00000618       0x28 c:/program files (x86)/embitz/2.62/share/armgcc/bin/../lib/gcc/arm-none-eabi/9.3.1/../../../../arm-none-eabi/lib/thumb/v6-m/nofp\libg_nano.a(lib_a-exit.o)
 .debug_frame   0x00000640       0x2c c:/program files (x86)/embitz/2.62/share/armgcc/bin/../lib/gcc/arm-none-eabi/9.3.1/../../../../arm-none-eabi/lib/thumb/v6-m/nofp\libg_nano.a(lib_a-init.o)
 .debug_frame   0x0000066c       0x20 c:/program files (x86)/embitz/2.62/share/armgcc/bin/../lib/gcc/arm-none-eabi/9.3.1/../../../../arm-none-eabi/lib/thumb/v6-m/nofp\libg_nano.a(lib_a-memset.o)
 .debug_frame   0x0000068c       0x20 c:/program files (x86)/embitz/2.62/share/armgcc/bin/../lib/gcc/arm-none-eabi/9.3.1/../../../../arm-none-eabi/lib/thumb/v6-m/nofp\libnosys.a(_exit.o)
